; Function Attrs: mustprogress uwtable
define dso_local noundef zeroext i1 @_ZN5cmsys11SystemTools6GetEnvEPKcRNSt7__cxx1112basic_stringIcSt11char_traitsIcESaIcEEE(ptr noundef readonly captures(none) %0, ptr noundef nonnull align 8 dereferenceable(32) %1) local_unnamed_addr #6 align 2 {
  %3 = tail call ptr @getenv(ptr noundef %0) #39
  %.not = icmp ne ptr %3, null
  br i1 %.not, label %4, label %9

4:                                                ; preds = %2
  %5 = getelementptr inbounds nuw i8, ptr %1, i64 8
  %6 = load i64, ptr %5, align 8, !tbaa !18
  %7 = tail call noundef i64 @strlen(ptr noundef nonnull dereferenceable(1) %3) #39
  %8 = tail call noundef nonnull align 8 dereferenceable(32) ptr @_ZNSt7__cxx1112basic_stringIcSt11char_traitsIcESaIcEE10_M_replaceEmmPKcm(ptr noundef nonnull align 8 dereferenceable(32) %1, i64 noundef 0, i64 noundef %6, ptr noundef nonnull %3, i64 noundef %7)
  br label %9

9:                                                ; preds = %2, %4
  ret i1 %.not
}